; Function Attrs: nounwind uwtable
define range(i32 -1, 1) i32 @H5A__delete_by_name(ptr noundef %0, ptr noundef %1, ptr noundef %2) local_unnamed_addr #0 {
  %4 = alloca %struct.H5G_loc_t, align 8
  %5 = alloca %struct.H5G_name_t, align 8
  %6 = alloca %struct.H5O_loc_t, align 8
  store ptr %6, ptr %4, align 8
  %7 = getelementptr inbounds i8, ptr %4, i64 8
  store ptr %5, ptr %7, align 8
  %8 = call i32 @H5G_loc_reset(ptr noundef nonnull %4) #13
  %9 = call i32 @H5G_loc_find(ptr noundef %0, ptr noundef %1, ptr noundef nonnull %4) #13
  %10 = icmp sgt i32 %9, -1
  br i1 %10, label %11, label %19

11:                                               ; preds = %3
  %12 = load ptr, ptr %4, align 8
  %13 = call i32 @H5O__attr_remove(ptr noundef %12, ptr noundef %2) #13
  %14 = icmp slt i32 %13, 0
  br i1 %14, label %15, label %23

15:                                               ; preds = %11
  %16 = load i64, ptr @H5E_ATTR_g, align 8
  %17 = load i64, ptr @H5E_CANTDELETE_g, align 8
  %18 = call i32 (ptr, ptr, i32, i64, i64, ptr, ...) @H5E_printf_stack(ptr noundef nonnull @.str.3, ptr noundef nonnull @__func__.H5A__delete_by_name, i32 noundef 2692, i64 noundef %16, i64 noundef %17, ptr noundef nonnull @.str.94) #13
  br label %23

19:                                               ; preds = %3
  %20 = load i64, ptr @H5E_ATTR_g, align 8
  %21 = load i64, ptr @H5E_NOTFOUND_g, align 8
  %22 = call i32 (ptr, ptr, i32, i64, i64, ptr, ...) @H5E_printf_stack(ptr noundef nonnull @.str.3, ptr noundef nonnull @__func__.H5A__delete_by_name, i32 noundef 2687, i64 noundef %20, i64 noundef %21, ptr noundef nonnull @.str.28) #13
  br label %30

23:                                               ; preds = %11, %15
  %.0.ph = phi i32 [ 0, %11 ], [ -1, %15 ]
  %24 = call i32 @H5G_loc_free(ptr noundef nonnull %4) #13
  %25 = icmp slt i32 %24, 0
  br i1 %25, label %26, label %30

26:                                               ; preds = %23
  %27 = load i64, ptr @H5E_ATTR_g, align 8
  %28 = load i64, ptr @H5E_CANTRELEASE_g, align 8
  %29 = call i32 (ptr, ptr, i32, i64, i64, ptr, ...) @H5E_printf_stack(ptr noundef nonnull @.str.3, ptr noundef nonnull @__func__.H5A__delete_by_name, i32 noundef 2697, i64 noundef %27, i64 noundef %28, ptr noundef nonnull @.str.30) #13
  br label %30

30:                                               ; preds = %19, %26, %23
  %.1 = phi i32 [ -1, %26 ], [ %.0.ph, %23 ], [ -1, %19 ]
  ret i32 %.1
}